target datalayout = "e-m:e-p270:32:32-p271:32:32-p272:64:64-i64:64-i128:128-f80:128-n8:16:32:64-S128"
target triple = "x86_64-unknown-linux-gnu"

@_ZTIN6icu_758TimeZoneE = external constant ptr
@_ZTIN6icu_7514SimpleTimeZoneE = external constant ptr

; Function Attrs: mustprogress nounwind uwtable
define internal noundef signext i8 @_ZL9U_FAILURE10UErrorCode(i32 noundef %code) #0 {
entry:
  %code.addr = alloca i32, align 4
  store i32 %code, ptr %code.addr, align 4
  %0 = load i32, ptr %code.addr, align 4
  %cmp = icmp sgt i32 %0, 0
  %conv = zext i1 %cmp to i8
  ret i8 %conv
}

; Function Attrs: mustprogress nounwind uwtable
define internal noundef signext i8 @_ZL9U_SUCCESS10UErrorCode(i32 noundef %code) #0 {
entry:
  %code.addr = alloca i32, align 4
  store i32 %code, ptr %code.addr, align 4
  %0 = load i32, ptr %code.addr, align 4
  %cmp = icmp sle i32 %0, 0
  %conv = zext i1 %cmp to i8
  ret i8 %conv
}

; Function Attrs: mustprogress uwtable
define i32 @ucal_getDSTSavings_75(ptr noundef %zoneID, ptr noundef %ec) #1 {
entry:
  %zoneID.addr = alloca ptr, align 8
  %ec.addr = alloca ptr, align 8
  %result = alloca i32, align 4
  %zone = alloca ptr, align 8
  %stz = alloca ptr, align 8
  %d = alloca double, align 8
  %i = alloca i32, align 4
  %raw = alloca i32, align 4
  %dst = alloca i32, align 4
  store ptr %zoneID, ptr %zoneID.addr, align 8
  store ptr %ec, ptr %ec.addr, align 8
  store i32 0, ptr %result, align 4
  %0 = load ptr, ptr %zoneID.addr, align 8
  %1 = load ptr, ptr %ec.addr, align 8
  %call = call noundef ptr @_ZL15_createTimeZonePKDsiP10UErrorCode(ptr noundef %0, i32 noundef -1, ptr noundef %1)
  store ptr %call, ptr %zone, align 8
  %2 = load ptr, ptr %ec.addr, align 8
  %3 = load i32, ptr %2, align 4
  %call1 = call noundef signext i8 @_ZL9U_SUCCESS10UErrorCode(i32 noundef %3)
  %tobool = icmp ne i8 %call1, 0
  br i1 %tobool, label %if.then, label %if.end16

if.then:                                          ; preds = %entry
  %4 = load ptr, ptr %zone, align 8
  %5 = icmp eq ptr %4, null
  br i1 %5, label %dynamic_cast.null, label %dynamic_cast.notnull

dynamic_cast.notnull:                             ; preds = %if.then
  %6 = call ptr @__dynamic_cast(ptr %4, ptr @_ZTIN6icu_758TimeZoneE, ptr @_ZTIN6icu_7514SimpleTimeZoneE, i64 0) #9
  br label %dynamic_cast.end

dynamic_cast.null:                                ; preds = %if.then
  br label %dynamic_cast.end

dynamic_cast.end:                                 ; preds = %dynamic_cast.null, %dynamic_cast.notnull
  %7 = phi ptr [ %6, %dynamic_cast.notnull ], [ null, %dynamic_cast.null ]
  store ptr %7, ptr %stz, align 8
  %8 = load ptr, ptr %stz, align 8
  %cmp = icmp ne ptr %8, null
  br i1 %cmp, label %if.then2, label %if.else

if.then2:                                         ; preds = %dynamic_cast.end
  %9 = load ptr, ptr %stz, align 8
  %vtable = load ptr, ptr %9, align 8
  %vfn = getelementptr inbounds ptr, ptr %vtable, i64 13
  %10 = load ptr, ptr %vfn, align 8
  %call3 = call noundef i32 %10(ptr noundef nonnull align 8 dereferenceable(160) %9)
  store i32 %call3, ptr %result, align 4
  br label %if.end15

if.else:                                          ; preds = %dynamic_cast.end
  %call4 = call noundef double @_ZN6icu_758Calendar6getNowEv()
  store double %call4, ptr %d, align 8
  store i32 0, ptr %i, align 4
  br label %for.cond

for.cond:                                         ; preds = %for.inc, %if.else
  %11 = load i32, ptr %i, align 4
  %cmp5 = icmp slt i32 %11, 53
  br i1 %cmp5, label %for.body, label %for.end

for.body:                                         ; preds = %for.cond
  %12 = load ptr, ptr %zone, align 8
  %13 = load double, ptr %d, align 8
  %14 = load ptr, ptr %ec.addr, align 8
  %vtable6 = load ptr, ptr %12, align 8
  %vfn7 = getelementptr inbounds ptr, ptr %vtable6, i64 6
  %15 = load ptr, ptr %vfn7, align 8
  call void %15(ptr noundef nonnull align 8 dereferenceable(72) %12, double noundef %13, i8 noundef signext 0, ptr noundef nonnull align 4 dereferenceable(4) %raw, ptr noundef nonnull align 4 dereferenceable(4) %dst, ptr noundef nonnull align 4 dereferenceable(4) %14)
  %16 = load ptr, ptr %ec.addr, align 8
  %17 = load i32, ptr %16, align 4
  %call8 = call noundef signext i8 @_ZL9U_FAILURE10UErrorCode(i32 noundef %17)
  %tobool9 = icmp ne i8 %call8, 0
  br i1 %tobool9, label %if.then10, label %if.else11

if.then10:                                        ; preds = %for.body
  br label %for.end

if.else11:                                        ; preds = %for.body
  %18 = load i32, ptr %dst, align 4
  %cmp12 = icmp ne i32 %18, 0
  br i1 %cmp12, label %if.then13, label %if.end

if.then13:                                        ; preds = %if.else11
  %19 = load i32, ptr %dst, align 4
  store i32 %19, ptr %result, align 4
  br label %for.end

if.end:                                           ; preds = %if.else11
  br label %if.end14

if.end14:                                         ; preds = %if.end
  br label %for.inc

for.inc:                                          ; preds = %if.end14
  %20 = load i32, ptr %i, align 4
  %inc = add nsw i32 %20, 1
  store i32 %inc, ptr %i, align 4
  %21 = load double, ptr %d, align 8
  %add = fadd double %21, 6.048000e+08
  store double %add, ptr %d, align 8
  br label %for.cond, !llvm.loop !5

for.end:                                          ; preds = %if.then13, %if.then10, %for.cond
  br label %if.end15

if.end15:                                         ; preds = %for.end, %if.then2
  br label %if.end16

if.end16:                                         ; preds = %if.end15, %entry
  %22 = load ptr, ptr %zone, align 8
  %isnull = icmp eq ptr %22, null
  br i1 %isnull, label %delete.end, label %delete.notnull

delete.notnull:                                   ; preds = %if.end16
  %vtable17 = load ptr, ptr %22, align 8
  %vfn18 = getelementptr inbounds ptr, ptr %vtable17, i64 1
  %23 = load ptr, ptr %vfn18, align 8
  call void %23(ptr noundef nonnull align 8 dereferenceable(72) %22) #9
  br label %delete.end

delete.end:                                       ; preds = %delete.notnull, %if.end16
  %24 = load i32, ptr %result, align 4
  ret i32 %24
}