; Function Attrs: mustprogress uwtable
define i32 @ucal_getDSTSavings_75(ptr noundef %zoneID, ptr noundef %ec) local_unnamed_addr #1 {
entry:
  %raw = alloca i32, align 4
  %dst = alloca i32, align 4
  %call = tail call fastcc noundef ptr @_ZL15_createTimeZonePKDsiP10UErrorCode(ptr noundef %zoneID, i32 noundef -1, ptr noundef %ec)
  %0 = load i32, ptr %ec, align 4
  %cmp.i = icmp sgt i32 %0, 0
  %isnull = icmp eq ptr %call, null
  br i1 %cmp.i, label %if.end16, label %if.then

if.then:                                          ; preds = %entry
  br i1 %isnull, label %if.else, label %dynamic_cast.end

dynamic_cast.end:                                 ; preds = %if.then
  %1 = tail call ptr @__dynamic_cast(ptr nonnull %call, ptr nonnull @_ZTIN6icu_758TimeZoneE, ptr nonnull @_ZTIN6icu_7514SimpleTimeZoneE, i64 0) #11
  %cmp.not = icmp eq ptr %1, null
  br i1 %cmp.not, label %if.else, label %if.then2

if.then2:                                         ; preds = %dynamic_cast.end
  %vtable = load ptr, ptr %1, align 8
  %vfn = getelementptr inbounds i8, ptr %vtable, i64 104
  %2 = load ptr, ptr %vfn, align 8
  %call3 = tail call noundef i32 %2(ptr noundef nonnull align 8 dereferenceable(160) %1)
  br label %delete.notnull

if.else:                                          ; preds = %if.then, %dynamic_cast.end
  %call4 = tail call noundef double @_ZN6icu_758Calendar6getNowEv()
  br label %for.body

for.body:                                         ; preds = %if.else, %for.inc
  %i.018 = phi i32 [ 0, %if.else ], [ %inc, %for.inc ]
  %d.017 = phi double [ %call4, %if.else ], [ %add, %for.inc ]
  %vtable6 = load ptr, ptr %call, align 8
  %vfn7 = getelementptr inbounds i8, ptr %vtable6, i64 48
  %3 = load ptr, ptr %vfn7, align 8
  call void %3(ptr noundef nonnull align 8 dereferenceable(72) %call, double noundef %d.017, i8 noundef signext 0, ptr noundef nonnull align 4 dereferenceable(4) %raw, ptr noundef nonnull align 4 dereferenceable(4) %dst, ptr noundef nonnull align 4 dereferenceable(4) %ec)
  %4 = load i32, ptr %ec, align 4
  %cmp.i10 = icmp slt i32 %4, 1
  br i1 %cmp.i10, label %if.else11, label %delete.notnull

if.else11:                                        ; preds = %for.body
  %5 = load i32, ptr %dst, align 4
  %cmp12.not = icmp eq i32 %5, 0
  br i1 %cmp12.not, label %for.inc, label %delete.notnull

for.inc:                                          ; preds = %if.else11
  %inc = add nuw nsw i32 %i.018, 1
  %add = fadd double %d.017, 6.048000e+08
  %exitcond.not = icmp eq i32 %inc, 53
  br i1 %exitcond.not, label %delete.notnull, label %for.body, !llvm.loop !6

if.end16:                                         ; preds = %entry
  br i1 %isnull, label %delete.end, label %delete.notnull

delete.notnull:                                   ; preds = %for.inc, %for.body, %if.else11, %if.then2, %if.end16
  %result.015 = phi i32 [ 0, %if.end16 ], [ %call3, %if.then2 ], [ 0, %for.inc ], [ 0, %for.body ], [ %5, %if.else11 ]
  %vtable17 = load ptr, ptr %call, align 8
  %vfn18 = getelementptr inbounds i8, ptr %vtable17, i64 8
  %6 = load ptr, ptr %vfn18, align 8
  call void %6(ptr noundef nonnull align 8 dereferenceable(72) %call) #11
  br label %delete.end

delete.end:                                       ; preds = %delete.notnull, %if.end16
  %result.016 = phi i32 [ %result.015, %delete.notnull ], [ 0, %if.end16 ]
  ret i32 %result.016
}